; Function Attrs: nofree norecurse nosync nounwind memory(argmem: read) uwtable
define i64 @nghttp2_hd_deflate_bound(ptr noundef readnone captures(none) %0, ptr noundef readonly captures(none) %1, i64 noundef %2) local_unnamed_addr #6 {
  %4 = mul i64 %2, 12
  %5 = add i64 %4, 12
  %.not = icmp eq i64 %2, 0
  br i1 %.not, label %._crit_edge, label %.lr.ph

.lr.ph:                                           ; preds = %3, %.lr.ph
  %.013 = phi i64 [ %13, %.lr.ph ], [ 0, %3 ]
  %.01112 = phi i64 [ %12, %.lr.ph ], [ %5, %3 ]
  %6 = getelementptr inbounds nuw %struct.nghttp2_nv, ptr %1, i64 %.013
  %7 = getelementptr inbounds nuw i8, ptr %6, i64 16
  %8 = load i64, ptr %7, align 8, !tbaa !84
  %9 = getelementptr inbounds nuw i8, ptr %6, i64 24
  %10 = load i64, ptr %9, align 8, !tbaa !87
  %11 = add i64 %8, %.01112
  %12 = add i64 %11, %10
  %13 = add nuw i64 %.013, 1
  %exitcond.not = icmp eq i64 %13, %2
  br i1 %exitcond.not, label %._crit_edge, label %.lr.ph, !llvm.loop !99

._crit_edge:                                      ; preds = %.lr.ph, %3
  %.011.lcssa = phi i64 [ %5, %3 ], [ %12, %.lr.ph ]
  ret i64 %.011.lcssa
}